target datalayout = "e-m:e-p270:32:32-p271:32:32-p272:64:64-i64:64-i128:128-f80:128-n8:16:32:64-S128"
target triple = "x86_64-pc-linux-gnu"

%struct.RBasic = type { i64, i64 }
%struct.RArray = type { %struct.RBasic, %union.anon }
%union.anon = type { %struct.anon }
%struct.anon = type { i64, %union.anon.0, ptr }
%union.anon.0 = type { i64 }

@.str.3 = private unnamed_addr constant [11 x i8] c"../array.c\00", align 1

; Function Attrs: inlinehint nounwind sspstrong willreturn memory(none) uwtable
define internal zeroext i1 @RB_IMMEDIATE_P(i64 noundef %0) #11 {
  %2 = alloca i64, align 8
  store i64 %0, ptr %2, align 8, !tbaa !7
  %3 = load i64, ptr %2, align 8, !tbaa !7
  %4 = and i64 %3, 7
  %5 = icmp ne i64 %4, 0
  ret i1 %5
}

; Function Attrs: inlinehint nounwind sspstrong willreturn memory(read) uwtable
define internal zeroext i1 @RB_FL_ANY_RAW(i64 noundef %0, i64 noundef %1) #2 {
  %3 = alloca i64, align 8
  %4 = alloca i64, align 8
  store i64 %0, ptr %3, align 8, !tbaa !7
  store i64 %1, ptr %4, align 8, !tbaa !7
  %5 = load i64, ptr %3, align 8, !tbaa !7
  %6 = load i64, ptr %4, align 8, !tbaa !7
  %7 = call i64 @RB_FL_TEST_RAW(i64 noundef %5, i64 noundef %6) #26
  %8 = icmp ne i64 %7, 0
  ret i1 %8
}

; Function Attrs: inlinehint nounwind sspstrong willreturn memory(none) uwtable
define internal zeroext i1 @RB_SPECIAL_CONST_P(i64 noundef %0) #11 {
  %2 = alloca i64, align 8
  store i64 %0, ptr %2, align 8, !tbaa !7
  %3 = load i64, ptr %2, align 8, !tbaa !7
  %4 = icmp eq i64 %3, 0
  br i1 %4, label %8, label %5

5:                                                ; preds = %1
  %6 = load i64, ptr %2, align 8, !tbaa !7
  %7 = call zeroext i1 @RB_IMMEDIATE_P(i64 noundef %6) #29
  br label %8

8:                                                ; preds = %5, %1
  %9 = phi i1 [ true, %1 ], [ %7, %5 ]
  ret i1 %9
}

; Function Attrs: inlinehint nounwind sspstrong willreturn memory(read) uwtable
define internal ptr @rb_array_const_ptr(i64 noundef %0) #2 {
  %2 = alloca ptr, align 8
  %3 = alloca i64, align 8
  store i64 %0, ptr %3, align 8, !tbaa !7
  %4 = load i64, ptr %3, align 8, !tbaa !7
  %5 = call zeroext i1 @RB_FL_ANY_RAW(i64 noundef %4, i64 noundef 8192) #26
  br i1 %5, label %6, label %11

6:                                                ; preds = %1
  %7 = load i64, ptr %3, align 8, !tbaa !7
  %8 = inttoptr i64 %7 to ptr
  %9 = getelementptr inbounds nuw %struct.RArray, ptr %8, i32 0, i32 1
  %10 = getelementptr inbounds [1 x i64], ptr %9, i64 0, i64 0
  store ptr %10, ptr %2, align 8
  br label %17

11:                                               ; preds = %1
  %12 = load i64, ptr %3, align 8, !tbaa !7
  %13 = inttoptr i64 %12 to ptr
  %14 = getelementptr inbounds nuw %struct.RArray, ptr %13, i32 0, i32 1
  %15 = getelementptr inbounds nuw %struct.anon, ptr %14, i32 0, i32 2
  %16 = load ptr, ptr %15, align 8, !tbaa !13
  store ptr %16, ptr %2, align 8
  br label %17

17:                                               ; preds = %11, %6
  %18 = load ptr, ptr %2, align 8
  ret ptr %18
}

; Function Attrs: inlinehint nounwind sspstrong willreturn memory(read) uwtable
define internal i64 @RB_FL_TEST_RAW(i64 noundef %0, i64 noundef %1) #2 {
  %3 = alloca i64, align 8
  %4 = alloca i64, align 8
  store i64 %0, ptr %3, align 8, !tbaa !7
  store i64 %1, ptr %4, align 8, !tbaa !7
  %5 = load i64, ptr %3, align 8, !tbaa !7
  %6 = inttoptr i64 %5 to ptr
  %7 = getelementptr inbounds nuw %struct.RBasic, ptr %6, i32 0, i32 0
  %8 = load i64, ptr %7, align 8, !tbaa !11
  %9 = load i64, ptr %4, align 8, !tbaa !7
  %10 = and i64 %8, %9
  ret i64 %10
}

; Function Attrs: nounwind sspstrong uwtable
define dso_local void @rb_ary_ptr_use_end(i64 noundef %0) #0 {
  %2 = alloca i64, align 8
  store i64 %0, ptr %2, align 8, !tbaa !7
  ret void
}

; Function Attrs: inlinehint nounwind sspstrong uwtable
define internal i64 @rb_obj_written(i64 noundef %0, i64 noundef %1, i64 noundef %2, ptr noundef %3, i32 noundef %4) #1 {
  %6 = alloca i64, align 8
  %7 = alloca i64, align 8
  %8 = alloca i64, align 8
  %9 = alloca ptr, align 8
  %10 = alloca i32, align 4
  store i64 %0, ptr %6, align 8, !tbaa !7
  store i64 %1, ptr %7, align 8, !tbaa !7
  store i64 %2, ptr %8, align 8, !tbaa !7
  store ptr %3, ptr %9, align 8, !tbaa !28
  store i32 %4, ptr %10, align 4, !tbaa !31
  %11 = load i64, ptr %8, align 8, !tbaa !7
  %12 = call zeroext i1 @RB_SPECIAL_CONST_P(i64 noundef %11) #29
  br i1 %12, label %16, label %13

13:                                               ; preds = %5
  %14 = load i64, ptr %6, align 8, !tbaa !7
  %15 = load i64, ptr %8, align 8, !tbaa !7
  call void @rb_gc_writebarrier(i64 noundef %14, i64 noundef %15)
  br label %16

16:                                               ; preds = %13, %5
  %17 = load i64, ptr %6, align 8, !tbaa !7
  ret i64 %17
}

; Function Attrs: inlinehint nounwind sspstrong uwtable
define internal void @memfill(ptr noundef %0, i64 noundef %1, i64 noundef %2) #1 {
  %4 = alloca ptr, align 8
  %5 = alloca i64, align 8
  %6 = alloca i64, align 8
  store ptr %0, ptr %4, align 8, !tbaa !14
  store i64 %1, ptr %5, align 8, !tbaa !7
  store i64 %2, ptr %6, align 8, !tbaa !7
  br label %7

7:                                                ; preds = %11, %3
  %8 = load i64, ptr %5, align 8, !tbaa !7
  %9 = add i64 %8, -1
  store i64 %9, ptr %5, align 8, !tbaa !7
  %10 = icmp ne i64 %8, 0
  br i1 %10, label %11, label %15

11:                                               ; preds = %7
  %12 = load i64, ptr %6, align 8, !tbaa !7
  %13 = load ptr, ptr %4, align 8, !tbaa !14
  %14 = getelementptr i64, ptr %13, i32 1
  store ptr %14, ptr %4, align 8, !tbaa !14
  store i64 %12, ptr %13, align 8, !tbaa !7
  br label %7, !llvm.loop !189

15:                                               ; preds = %7
  ret void
}

; Function Attrs: nounwind sspstrong uwtable
define dso_local ptr @rb_ary_ptr_use_start(i64 noundef %0) #0 {
  %2 = alloca i64, align 8
  store i64 %0, ptr %2, align 8, !tbaa !7
  %3 = load i64, ptr %2, align 8, !tbaa !7
  %4 = call ptr @rb_array_const_ptr(i64 noundef %3) #26
  ret ptr %4
}

; Function Attrs: inlinehint nounwind sspstrong uwtable
define internal zeroext i1 @ARY_EMBED_P(i64 noundef %0) #1 {
  %2 = alloca i64, align 8
  store i64 %0, ptr %2, align 8, !tbaa !7
  %3 = load i64, ptr %2, align 8, !tbaa !7
  %4 = call i64 @RB_FL_TEST_RAW(i64 noundef %3, i64 noundef 8192) #26
  %5 = icmp ne i64 %4, 0
  ret i1 %5
}

; Function Attrs: nounwind sspstrong uwtable
define internal void @ary_memfill(i64 noundef %0, i64 noundef %1, i64 noundef %2, i64 noundef %3) #0 {
  %5 = alloca i64, align 8
  %6 = alloca i64, align 8
  %7 = alloca i64, align 8
  %8 = alloca i64, align 8
  %9 = alloca i64, align 8
  %10 = alloca ptr, align 8
  store i64 %0, ptr %5, align 8, !tbaa !7
  store i64 %1, ptr %6, align 8, !tbaa !7
  store i64 %2, ptr %7, align 8, !tbaa !7
  store i64 %3, ptr %8, align 8, !tbaa !7
  br label %11

11:                                               ; preds = %4
  call void @llvm.lifetime.start.p0(i64 8, ptr %9) #27
  %12 = load i64, ptr %5, align 8, !tbaa !7
  store i64 %12, ptr %9, align 8, !tbaa !7
  call void @llvm.lifetime.start.p0(i64 8, ptr %10) #27
  %13 = load i64, ptr %9, align 8, !tbaa !7
  %14 = call ptr @rb_ary_ptr_use_start(i64 noundef %13)
  store ptr %14, ptr %10, align 8, !tbaa !14
  %15 = load ptr, ptr %10, align 8, !tbaa !14
  %16 = load i64, ptr %6, align 8, !tbaa !7
  %17 = getelementptr i64, ptr %15, i64 %16
  %18 = load i64, ptr %7, align 8, !tbaa !7
  %19 = load i64, ptr %8, align 8, !tbaa !7
  call void @memfill(ptr noundef %17, i64 noundef %18, i64 noundef %19)
  %20 = load i64, ptr %5, align 8, !tbaa !7
  %21 = load i64, ptr %8, align 8, !tbaa !7
  %22 = call i64 @rb_obj_written(i64 noundef %20, i64 noundef 36, i64 noundef %21, ptr noundef @.str.3, i32 noundef 316)
  %23 = load i64, ptr %9, align 8, !tbaa !7
  call void @rb_ary_ptr_use_end(i64 noundef %23)
  call void @llvm.lifetime.end.p0(i64 8, ptr %10) #27
  call void @llvm.lifetime.end.p0(i64 8, ptr %9) #27
  br label %24

24:                                               ; preds = %11
  ret void
}

; Function Attrs: nounwind sspstrong uwtable
define dso_local i64 @rb_ary_hidden_new(i64 noundef %0) #0 {
  %2 = alloca i64, align 8
  %3 = alloca i64, align 8
  store i64 %0, ptr %2, align 8, !tbaa !7
  call void @llvm.lifetime.start.p0(i64 8, ptr %3) #27
  %4 = load i64, ptr %2, align 8, !tbaa !7
  %5 = call i64 @ary_new(i64 noundef 0, i64 noundef %4)
  store i64 %5, ptr %3, align 8, !tbaa !7
  %6 = load i64, ptr %3, align 8, !tbaa !7
  call void @llvm.lifetime.end.p0(i64 8, ptr %3) #27
  ret i64 %6
}

; Function Attrs: nounwind sspstrong uwtable
define hidden i64 @rb_ary_hidden_new_fill(i64 noundef %0) #0 {
  %2 = alloca i64, align 8
  %3 = alloca i64, align 8
  %4 = alloca i64, align 8
  store i64 %0, ptr %2, align 8, !tbaa !7
  call void @llvm.lifetime.start.p0(i64 8, ptr %3) #27
  %5 = load i64, ptr %2, align 8, !tbaa !7
  %6 = call i64 @rb_ary_hidden_new(i64 noundef %5)
  store i64 %6, ptr %3, align 8, !tbaa !7
  %7 = load i64, ptr %3, align 8, !tbaa !7
  %8 = load i64, ptr %2, align 8, !tbaa !7
  call void @ary_memfill(i64 noundef %7, i64 noundef 0, i64 noundef %8, i64 noundef 4)
  br label %9

9:                                                ; preds = %1
  %10 = load i64, ptr %3, align 8, !tbaa !7
  %11 = call zeroext i1 @ARY_EMBED_P(i64 noundef %10)
  br i1 %11, label %12, label %29

12:                                               ; preds = %9
  br label %13

13:                                               ; preds = %12
  call void @llvm.lifetime.start.p0(i64 8, ptr %4) #27
  %14 = load i64, ptr %2, align 8, !tbaa !7
  store i64 %14, ptr %4, align 8, !tbaa !7
  %15 = load i64, ptr %3, align 8, !tbaa !7
  %16 = inttoptr i64 %15 to ptr
  %17 = getelementptr inbounds nuw %struct.RBasic, ptr %16, i32 0, i32 0
  %18 = load i64, ptr %17, align 8, !tbaa !11
  %19 = and i64 %18, -4161537
  store i64 %19, ptr %17, align 8, !tbaa !11
  %20 = load i64, ptr %4, align 8, !tbaa !7
  %21 = shl i64 %20, 15
  %22 = load i64, ptr %3, align 8, !tbaa !7
  %23 = inttoptr i64 %22 to ptr
  %24 = getelementptr inbounds nuw %struct.RBasic, ptr %23, i32 0, i32 0
  %25 = load i64, ptr %24, align 8, !tbaa !11
  %26 = or i64 %25, %21
  store i64 %26, ptr %24, align 8, !tbaa !11
  call void @llvm.lifetime.end.p0(i64 8, ptr %4) #27
  br label %27

27:                                               ; preds = %13
  br label %28

28:                                               ; preds = %27
  br label %38

29:                                               ; preds = %9
  br label %30

30:                                               ; preds = %29
  %31 = load i64, ptr %2, align 8, !tbaa !7
  %32 = load i64, ptr %3, align 8, !tbaa !7
  %33 = inttoptr i64 %32 to ptr
  %34 = getelementptr inbounds nuw %struct.RArray, ptr %33, i32 0, i32 1
  %35 = getelementptr inbounds nuw %struct.anon, ptr %34, i32 0, i32 0
  store i64 %31, ptr %35, align 8, !tbaa !13
  br label %36

36:                                               ; preds = %30
  br label %37

37:                                               ; preds = %36
  br label %38

38:                                               ; preds = %37, %28
  br label %39

39:                                               ; preds = %38
  br label %40

40:                                               ; preds = %39
  %41 = load i64, ptr %3, align 8, !tbaa !7
  call void @llvm.lifetime.end.p0(i64 8, ptr %3) #27
  ret i64 %41
}