; Function Attrs: nounwind sspstrong uwtable
define hidden i64 @rb_ary_hidden_new_fill(i64 noundef %0) local_unnamed_addr #4 {
  %2 = tail call fastcc i64 @ary_new(i64 noundef 0, i64 noundef %0)
  %3 = inttoptr i64 %2 to ptr
  %4 = load i64, ptr %3, align 8, !tbaa !7
  %5 = and i64 %4, 8192
  %.not.i.i.i = icmp eq i64 %5, 0
  br i1 %.not.i.i.i, label %8, label %6

6:                                                ; preds = %1
  %7 = getelementptr inbounds nuw i8, ptr %3, i64 16
  br label %rb_ary_ptr_use_start.exit.i

8:                                                ; preds = %1
  %9 = getelementptr inbounds nuw i8, ptr %3, i64 32
  %10 = load ptr, ptr %9, align 8, !tbaa !12
  br label %rb_ary_ptr_use_start.exit.i

rb_ary_ptr_use_start.exit.i:                      ; preds = %8, %6
  %.0.i.i.i = phi ptr [ %7, %6 ], [ %10, %8 ]
  %.not3.i.i = icmp eq i64 %0, 0
  br i1 %.not3.i.i, label %ary_memfill.exit, label %.lr.ph.i.i

.lr.ph.i.i:                                       ; preds = %rb_ary_ptr_use_start.exit.i, %.lr.ph.i.i
  %.05.i.i = phi ptr [ %12, %.lr.ph.i.i ], [ %.0.i.i.i, %rb_ary_ptr_use_start.exit.i ]
  %.024.i.i = phi i64 [ %11, %.lr.ph.i.i ], [ %0, %rb_ary_ptr_use_start.exit.i ]
  %11 = add i64 %.024.i.i, -1
  %12 = getelementptr i8, ptr %.05.i.i, i64 8
  store i64 4, ptr %.05.i.i, align 8, !tbaa !13
  %.not.i.i = icmp eq i64 %11, 0
  br i1 %.not.i.i, label %ary_memfill.exit.loopexit, label %.lr.ph.i.i, !llvm.loop !35

ary_memfill.exit.loopexit:                        ; preds = %.lr.ph.i.i
  %.pre = load i64, ptr %3, align 8, !tbaa !7
  br label %ary_memfill.exit

ary_memfill.exit:                                 ; preds = %ary_memfill.exit.loopexit, %rb_ary_ptr_use_start.exit.i
  %13 = phi i64 [ %.pre, %ary_memfill.exit.loopexit ], [ %4, %rb_ary_ptr_use_start.exit.i ]
  %14 = and i64 %13, 8192
  %.not = icmp eq i64 %14, 0
  br i1 %.not, label %19, label %15

15:                                               ; preds = %ary_memfill.exit
  %16 = and i64 %13, -4161537
  %17 = shl i64 %0, 15
  %18 = or i64 %16, %17
  store i64 %18, ptr %3, align 8, !tbaa !7
  br label %21

19:                                               ; preds = %ary_memfill.exit
  %20 = getelementptr inbounds nuw i8, ptr %3, i64 16
  store i64 %0, ptr %20, align 8, !tbaa !12
  br label %21

21:                                               ; preds = %19, %15
  ret i64 %2
}